target datalayout = "e-m:e-p270:32:32-p271:32:32-p272:64:64-i64:64-i128:128-f80:128-n8:16:32:64-S128"
target triple = "x86_64-pc-linux-gnu"

%struct._cwd_state = type { ptr, i64 }
%struct._virtual_cwd_globals = type { %struct._cwd_state, i64, i64, i64, [1024 x ptr] }
%struct.__va_list_tag = type { i32, i32, ptr, ptr }

@cwd_globals = hidden global %struct._virtual_cwd_globals zeroinitializer, align 8

; Function Attrs: nounwind uwtable
define dso_local i32 @virtual_open(ptr noundef %0, i32 noundef %1, ...) #0 {
  %3 = alloca i32, align 4
  %4 = alloca ptr, align 8
  %5 = alloca i32, align 4
  %6 = alloca %struct._cwd_state, align 8
  %7 = alloca i32, align 4
  %8 = alloca i32, align 4
  %9 = alloca i32, align 4
  %10 = alloca [1 x %struct.__va_list_tag], align 16
  store ptr %0, ptr %4, align 8, !tbaa !12
  store i32 %1, ptr %5, align 4, !tbaa !27
  call void @llvm.lifetime.start.p0(i64 16, ptr %6) #16
  call void @llvm.lifetime.start.p0(i64 4, ptr %7) #16
  %11 = load i64, ptr getelementptr inbounds nuw (%struct._cwd_state, ptr @cwd_globals, i32 0, i32 1), align 8, !tbaa !16
  %12 = getelementptr inbounds nuw %struct._cwd_state, ptr %6, i32 0, i32 1
  store i64 %11, ptr %12, align 8, !tbaa !13
  %13 = load i64, ptr getelementptr inbounds nuw (%struct._cwd_state, ptr @cwd_globals, i32 0, i32 1), align 8, !tbaa !16
  %14 = add i64 %13, 1
  %15 = call i1 @llvm.is.constant.i64(i64 %14)
  br i1 %15, label %16, label %270

16:                                               ; preds = %2
  %17 = load i64, ptr getelementptr inbounds nuw (%struct._cwd_state, ptr @cwd_globals, i32 0, i32 1), align 8, !tbaa !16
  %18 = add i64 %17, 1
  %19 = icmp ule i64 %18, 8
  br i1 %19, label %20, label %22

20:                                               ; preds = %16
  %21 = call noalias ptr @_emalloc_8()
  br label %268

22:                                               ; preds = %16
  %23 = load i64, ptr getelementptr inbounds nuw (%struct._cwd_state, ptr @cwd_globals, i32 0, i32 1), align 8, !tbaa !16
  %24 = add i64 %23, 1
  %25 = icmp ule i64 %24, 16
  br i1 %25, label %26, label %28

26:                                               ; preds = %22
  %27 = call noalias ptr @_emalloc_16()
  br label %266

28:                                               ; preds = %22
  %29 = load i64, ptr getelementptr inbounds nuw (%struct._cwd_state, ptr @cwd_globals, i32 0, i32 1), align 8, !tbaa !16
  %30 = add i64 %29, 1
  %31 = icmp ule i64 %30, 24
  br i1 %31, label %32, label %34

32:                                               ; preds = %28
  %33 = call noalias ptr @_emalloc_24()
  br label %264

34:                                               ; preds = %28
  %35 = load i64, ptr getelementptr inbounds nuw (%struct._cwd_state, ptr @cwd_globals, i32 0, i32 1), align 8, !tbaa !16
  %36 = add i64 %35, 1
  %37 = icmp ule i64 %36, 32
  br i1 %37, label %38, label %40

38:                                               ; preds = %34
  %39 = call noalias ptr @_emalloc_32()
  br label %262

40:                                               ; preds = %34
  %41 = load i64, ptr getelementptr inbounds nuw (%struct._cwd_state, ptr @cwd_globals, i32 0, i32 1), align 8, !tbaa !16
  %42 = add i64 %41, 1
  %43 = icmp ule i64 %42, 40
  br i1 %43, label %44, label %46

44:                                               ; preds = %40
  %45 = call noalias ptr @_emalloc_40()
  br label %260

46:                                               ; preds = %40
  %47 = load i64, ptr getelementptr inbounds nuw (%struct._cwd_state, ptr @cwd_globals, i32 0, i32 1), align 8, !tbaa !16
  %48 = add i64 %47, 1
  %49 = icmp ule i64 %48, 48
  br i1 %49, label %50, label %52

50:                                               ; preds = %46
  %51 = call noalias ptr @_emalloc_48()
  br label %258

52:                                               ; preds = %46
  %53 = load i64, ptr getelementptr inbounds nuw (%struct._cwd_state, ptr @cwd_globals, i32 0, i32 1), align 8, !tbaa !16
  %54 = add i64 %53, 1
  %55 = icmp ule i64 %54, 56
  br i1 %55, label %56, label %58

56:                                               ; preds = %52
  %57 = call noalias ptr @_emalloc_56()
  br label %256

58:                                               ; preds = %52
  %59 = load i64, ptr getelementptr inbounds nuw (%struct._cwd_state, ptr @cwd_globals, i32 0, i32 1), align 8, !tbaa !16
  %60 = add i64 %59, 1
  %61 = icmp ule i64 %60, 64
  br i1 %61, label %62, label %64

62:                                               ; preds = %58
  %63 = call noalias ptr @_emalloc_64()
  br label %254

64:                                               ; preds = %58
  %65 = load i64, ptr getelementptr inbounds nuw (%struct._cwd_state, ptr @cwd_globals, i32 0, i32 1), align 8, !tbaa !16
  %66 = add i64 %65, 1
  %67 = icmp ule i64 %66, 80
  br i1 %67, label %68, label %70

68:                                               ; preds = %64
  %69 = call noalias ptr @_emalloc_80()
  br label %252

70:                                               ; preds = %64
  %71 = load i64, ptr getelementptr inbounds nuw (%struct._cwd_state, ptr @cwd_globals, i32 0, i32 1), align 8, !tbaa !16
  %72 = add i64 %71, 1
  %73 = icmp ule i64 %72, 96
  br i1 %73, label %74, label %76

74:                                               ; preds = %70
  %75 = call noalias ptr @_emalloc_96()
  br label %250

76:                                               ; preds = %70
  %77 = load i64, ptr getelementptr inbounds nuw (%struct._cwd_state, ptr @cwd_globals, i32 0, i32 1), align 8, !tbaa !16
  %78 = add i64 %77, 1
  %79 = icmp ule i64 %78, 112
  br i1 %79, label %80, label %82

80:                                               ; preds = %76
  %81 = call noalias ptr @_emalloc_112()
  br label %248

82:                                               ; preds = %76
  %83 = load i64, ptr getelementptr inbounds nuw (%struct._cwd_state, ptr @cwd_globals, i32 0, i32 1), align 8, !tbaa !16
  %84 = add i64 %83, 1
  %85 = icmp ule i64 %84, 128
  br i1 %85, label %86, label %88

86:                                               ; preds = %82
  %87 = call noalias ptr @_emalloc_128()
  br label %246

88:                                               ; preds = %82
  %89 = load i64, ptr getelementptr inbounds nuw (%struct._cwd_state, ptr @cwd_globals, i32 0, i32 1), align 8, !tbaa !16
  %90 = add i64 %89, 1
  %91 = icmp ule i64 %90, 160
  br i1 %91, label %92, label %94

92:                                               ; preds = %88
  %93 = call noalias ptr @_emalloc_160()
  br label %244

94:                                               ; preds = %88
  %95 = load i64, ptr getelementptr inbounds nuw (%struct._cwd_state, ptr @cwd_globals, i32 0, i32 1), align 8, !tbaa !16
  %96 = add i64 %95, 1
  %97 = icmp ule i64 %96, 192
  br i1 %97, label %98, label %100

98:                                               ; preds = %94
  %99 = call noalias ptr @_emalloc_192()
  br label %242

100:                                              ; preds = %94
  %101 = load i64, ptr getelementptr inbounds nuw (%struct._cwd_state, ptr @cwd_globals, i32 0, i32 1), align 8, !tbaa !16
  %102 = add i64 %101, 1
  %103 = icmp ule i64 %102, 224
  br i1 %103, label %104, label %106

104:                                              ; preds = %100
  %105 = call noalias ptr @_emalloc_224()
  br label %240

106:                                              ; preds = %100
  %107 = load i64, ptr getelementptr inbounds nuw (%struct._cwd_state, ptr @cwd_globals, i32 0, i32 1), align 8, !tbaa !16
  %108 = add i64 %107, 1
  %109 = icmp ule i64 %108, 256
  br i1 %109, label %110, label %112

110:                                              ; preds = %106
  %111 = call noalias ptr @_emalloc_256()
  br label %238

112:                                              ; preds = %106
  %113 = load i64, ptr getelementptr inbounds nuw (%struct._cwd_state, ptr @cwd_globals, i32 0, i32 1), align 8, !tbaa !16
  %114 = add i64 %113, 1
  %115 = icmp ule i64 %114, 320
  br i1 %115, label %116, label %118

116:                                              ; preds = %112
  %117 = call noalias ptr @_emalloc_320()
  br label %236

118:                                              ; preds = %112
  %119 = load i64, ptr getelementptr inbounds nuw (%struct._cwd_state, ptr @cwd_globals, i32 0, i32 1), align 8, !tbaa !16
  %120 = add i64 %119, 1
  %121 = icmp ule i64 %120, 384
  br i1 %121, label %122, label %124

122:                                              ; preds = %118
  %123 = call noalias ptr @_emalloc_384()
  br label %234

124:                                              ; preds = %118
  %125 = load i64, ptr getelementptr inbounds nuw (%struct._cwd_state, ptr @cwd_globals, i32 0, i32 1), align 8, !tbaa !16
  %126 = add i64 %125, 1
  %127 = icmp ule i64 %126, 448
  br i1 %127, label %128, label %130

128:                                              ; preds = %124
  %129 = call noalias ptr @_emalloc_448()
  br label %232

130:                                              ; preds = %124
  %131 = load i64, ptr getelementptr inbounds nuw (%struct._cwd_state, ptr @cwd_globals, i32 0, i32 1), align 8, !tbaa !16
  %132 = add i64 %131, 1
  %133 = icmp ule i64 %132, 512
  br i1 %133, label %134, label %136

134:                                              ; preds = %130
  %135 = call noalias ptr @_emalloc_512()
  br label %230

136:                                              ; preds = %130
  %137 = load i64, ptr getelementptr inbounds nuw (%struct._cwd_state, ptr @cwd_globals, i32 0, i32 1), align 8, !tbaa !16
  %138 = add i64 %137, 1
  %139 = icmp ule i64 %138, 640
  br i1 %139, label %140, label %142

140:                                              ; preds = %136
  %141 = call noalias ptr @_emalloc_640()
  br label %228

142:                                              ; preds = %136
  %143 = load i64, ptr getelementptr inbounds nuw (%struct._cwd_state, ptr @cwd_globals, i32 0, i32 1), align 8, !tbaa !16
  %144 = add i64 %143, 1
  %145 = icmp ule i64 %144, 768
  br i1 %145, label %146, label %148

146:                                              ; preds = %142
  %147 = call noalias ptr @_emalloc_768()
  br label %226

148:                                              ; preds = %142
  %149 = load i64, ptr getelementptr inbounds nuw (%struct._cwd_state, ptr @cwd_globals, i32 0, i32 1), align 8, !tbaa !16
  %150 = add i64 %149, 1
  %151 = icmp ule i64 %150, 896
  br i1 %151, label %152, label %154

152:                                              ; preds = %148
  %153 = call noalias ptr @_emalloc_896()
  br label %224

154:                                              ; preds = %148
  %155 = load i64, ptr getelementptr inbounds nuw (%struct._cwd_state, ptr @cwd_globals, i32 0, i32 1), align 8, !tbaa !16
  %156 = add i64 %155, 1
  %157 = icmp ule i64 %156, 1024
  br i1 %157, label %158, label %160

158:                                              ; preds = %154
  %159 = call noalias ptr @_emalloc_1024()
  br label %222

160:                                              ; preds = %154
  %161 = load i64, ptr getelementptr inbounds nuw (%struct._cwd_state, ptr @cwd_globals, i32 0, i32 1), align 8, !tbaa !16
  %162 = add i64 %161, 1
  %163 = icmp ule i64 %162, 1280
  br i1 %163, label %164, label %166

164:                                              ; preds = %160
  %165 = call noalias ptr @_emalloc_1280()
  br label %220

166:                                              ; preds = %160
  %167 = load i64, ptr getelementptr inbounds nuw (%struct._cwd_state, ptr @cwd_globals, i32 0, i32 1), align 8, !tbaa !16
  %168 = add i64 %167, 1
  %169 = icmp ule i64 %168, 1536
  br i1 %169, label %170, label %172

170:                                              ; preds = %166
  %171 = call noalias ptr @_emalloc_1536()
  br label %218

172:                                              ; preds = %166
  %173 = load i64, ptr getelementptr inbounds nuw (%struct._cwd_state, ptr @cwd_globals, i32 0, i32 1), align 8, !tbaa !16
  %174 = add i64 %173, 1
  %175 = icmp ule i64 %174, 1792
  br i1 %175, label %176, label %178

176:                                              ; preds = %172
  %177 = call noalias ptr @_emalloc_1792()
  br label %216

178:                                              ; preds = %172
  %179 = load i64, ptr getelementptr inbounds nuw (%struct._cwd_state, ptr @cwd_globals, i32 0, i32 1), align 8, !tbaa !16
  %180 = add i64 %179, 1
  %181 = icmp ule i64 %180, 2048
  br i1 %181, label %182, label %184

182:                                              ; preds = %178
  %183 = call noalias ptr @_emalloc_2048()
  br label %214

184:                                              ; preds = %178
  %185 = load i64, ptr getelementptr inbounds nuw (%struct._cwd_state, ptr @cwd_globals, i32 0, i32 1), align 8, !tbaa !16
  %186 = add i64 %185, 1
  %187 = icmp ule i64 %186, 2560
  br i1 %187, label %188, label %190

188:                                              ; preds = %184
  %189 = call noalias ptr @_emalloc_2560()
  br label %212

190:                                              ; preds = %184
  %191 = load i64, ptr getelementptr inbounds nuw (%struct._cwd_state, ptr @cwd_globals, i32 0, i32 1), align 8, !tbaa !16
  %192 = add i64 %191, 1
  %193 = icmp ule i64 %192, 3072
  br i1 %193, label %194, label %196

194:                                              ; preds = %190
  %195 = call noalias ptr @_emalloc_3072()
  br label %210

196:                                              ; preds = %190
  %197 = load i64, ptr getelementptr inbounds nuw (%struct._cwd_state, ptr @cwd_globals, i32 0, i32 1), align 8, !tbaa !16
  %198 = add i64 %197, 1
  %199 = icmp ule i64 %198, 2093056
  br i1 %199, label %200, label %204

200:                                              ; preds = %196
  %201 = load i64, ptr getelementptr inbounds nuw (%struct._cwd_state, ptr @cwd_globals, i32 0, i32 1), align 8, !tbaa !16
  %202 = add i64 %201, 1
  %203 = call noalias ptr @_emalloc_large(i64 noundef %202) #18
  br label %208

204:                                              ; preds = %196
  %205 = load i64, ptr getelementptr inbounds nuw (%struct._cwd_state, ptr @cwd_globals, i32 0, i32 1), align 8, !tbaa !16
  %206 = add i64 %205, 1
  %207 = call noalias ptr @_emalloc_huge(i64 noundef %206) #18
  br label %208

208:                                              ; preds = %204, %200
  %209 = phi ptr [ %203, %200 ], [ %207, %204 ]
  br label %210

210:                                              ; preds = %208, %194
  %211 = phi ptr [ %195, %194 ], [ %209, %208 ]
  br label %212

212:                                              ; preds = %210, %188
  %213 = phi ptr [ %189, %188 ], [ %211, %210 ]
  br label %214

214:                                              ; preds = %212, %182
  %215 = phi ptr [ %183, %182 ], [ %213, %212 ]
  br label %216

216:                                              ; preds = %214, %176
  %217 = phi ptr [ %177, %176 ], [ %215, %214 ]
  br label %218

218:                                              ; preds = %216, %170
  %219 = phi ptr [ %171, %170 ], [ %217, %216 ]
  br label %220

220:                                              ; preds = %218, %164
  %221 = phi ptr [ %165, %164 ], [ %219, %218 ]
  br label %222

222:                                              ; preds = %220, %158
  %223 = phi ptr [ %159, %158 ], [ %221, %220 ]
  br label %224

224:                                              ; preds = %222, %152
  %225 = phi ptr [ %153, %152 ], [ %223, %222 ]
  br label %226

226:                                              ; preds = %224, %146
  %227 = phi ptr [ %147, %146 ], [ %225, %224 ]
  br label %228

228:                                              ; preds = %226, %140
  %229 = phi ptr [ %141, %140 ], [ %227, %226 ]
  br label %230

230:                                              ; preds = %228, %134
  %231 = phi ptr [ %135, %134 ], [ %229, %228 ]
  br label %232

232:                                              ; preds = %230, %128
  %233 = phi ptr [ %129, %128 ], [ %231, %230 ]
  br label %234

234:                                              ; preds = %232, %122
  %235 = phi ptr [ %123, %122 ], [ %233, %232 ]
  br label %236

236:                                              ; preds = %234, %116
  %237 = phi ptr [ %117, %116 ], [ %235, %234 ]
  br label %238

238:                                              ; preds = %236, %110
  %239 = phi ptr [ %111, %110 ], [ %237, %236 ]
  br label %240

240:                                              ; preds = %238, %104
  %241 = phi ptr [ %105, %104 ], [ %239, %238 ]
  br label %242

242:                                              ; preds = %240, %98
  %243 = phi ptr [ %99, %98 ], [ %241, %240 ]
  br label %244

244:                                              ; preds = %242, %92
  %245 = phi ptr [ %93, %92 ], [ %243, %242 ]
  br label %246

246:                                              ; preds = %244, %86
  %247 = phi ptr [ %87, %86 ], [ %245, %244 ]
  br label %248

248:                                              ; preds = %246, %80
  %249 = phi ptr [ %81, %80 ], [ %247, %246 ]
  br label %250

250:                                              ; preds = %248, %74
  %251 = phi ptr [ %75, %74 ], [ %249, %248 ]
  br label %252

252:                                              ; preds = %250, %68
  %253 = phi ptr [ %69, %68 ], [ %251, %250 ]
  br label %254

254:                                              ; preds = %252, %62
  %255 = phi ptr [ %63, %62 ], [ %253, %252 ]
  br label %256

256:                                              ; preds = %254, %56
  %257 = phi ptr [ %57, %56 ], [ %255, %254 ]
  br label %258

258:                                              ; preds = %256, %50
  %259 = phi ptr [ %51, %50 ], [ %257, %256 ]
  br label %260

260:                                              ; preds = %258, %44
  %261 = phi ptr [ %45, %44 ], [ %259, %258 ]
  br label %262

262:                                              ; preds = %260, %38
  %263 = phi ptr [ %39, %38 ], [ %261, %260 ]
  br label %264

264:                                              ; preds = %262, %32
  %265 = phi ptr [ %33, %32 ], [ %263, %262 ]
  br label %266

266:                                              ; preds = %264, %26
  %267 = phi ptr [ %27, %26 ], [ %265, %264 ]
  br label %268

268:                                              ; preds = %266, %20
  %269 = phi ptr [ %21, %20 ], [ %267, %266 ]
  br label %274

270:                                              ; preds = %2
  %271 = load i64, ptr getelementptr inbounds nuw (%struct._cwd_state, ptr @cwd_globals, i32 0, i32 1), align 8, !tbaa !16
  %272 = add i64 %271, 1
  %273 = call noalias ptr @_emalloc(i64 noundef %272) #18
  br label %274

274:                                              ; preds = %270, %268
  %275 = phi ptr [ %269, %268 ], [ %273, %270 ]
  %276 = getelementptr inbounds nuw %struct._cwd_state, ptr %6, i32 0, i32 0
  store ptr %275, ptr %276, align 8, !tbaa !7
  %277 = getelementptr inbounds nuw %struct._cwd_state, ptr %6, i32 0, i32 0
  %278 = load ptr, ptr %277, align 8, !tbaa !7
  %279 = load ptr, ptr @cwd_globals, align 8, !tbaa !18
  %280 = load i64, ptr getelementptr inbounds nuw (%struct._cwd_state, ptr @cwd_globals, i32 0, i32 1), align 8, !tbaa !16
  %281 = add i64 %280, 1
  call void @llvm.memcpy.p0.p0.i64(ptr align 1 %278, ptr align 1 %279, i64 %281, i1 false)
  %282 = load ptr, ptr %4, align 8, !tbaa !12
  %283 = call i32 @virtual_file_ex(ptr noundef %6, ptr noundef %282, ptr noundef null, i32 noundef 1)
  %284 = icmp ne i32 %283, 0
  br i1 %284, label %285, label %289

285:                                              ; preds = %274
  %286 = getelementptr inbounds nuw %struct._cwd_state, ptr %6, i32 0, i32 0
  %287 = load ptr, ptr %286, align 8, !tbaa !7
  call void @_efree(ptr noundef %287)
  %288 = getelementptr inbounds nuw %struct._cwd_state, ptr %6, i32 0, i32 1
  store i64 0, ptr %288, align 8, !tbaa !13
  store i32 -1, ptr %3, align 4
  store i32 1, ptr %8, align 4
  br label %327

289:                                              ; preds = %274
  %290 = load i32, ptr %5, align 4, !tbaa !27
  %291 = and i32 %290, 64
  %292 = icmp ne i32 %291, 0
  br i1 %292, label %293, label %317

293:                                              ; preds = %289
  call void @llvm.lifetime.start.p0(i64 4, ptr %9) #16
  call void @llvm.lifetime.start.p0(i64 24, ptr %10) #16
  %294 = getelementptr inbounds [1 x %struct.__va_list_tag], ptr %10, i64 0, i64 0
  call void @llvm.va_start.p0(ptr %294)
  %295 = getelementptr inbounds [1 x %struct.__va_list_tag], ptr %10, i64 0, i64 0
  %296 = getelementptr inbounds nuw %struct.__va_list_tag, ptr %295, i32 0, i32 0
  %297 = load i32, ptr %296, align 16
  %298 = icmp ule i32 %297, 40
  br i1 %298, label %299, label %304

299:                                              ; preds = %293
  %300 = getelementptr inbounds nuw %struct.__va_list_tag, ptr %295, i32 0, i32 3
  %301 = load ptr, ptr %300, align 16
  %302 = getelementptr i8, ptr %301, i32 %297
  %303 = add i32 %297, 8
  store i32 %303, ptr %296, align 16
  br label %308

304:                                              ; preds = %293
  %305 = getelementptr inbounds nuw %struct.__va_list_tag, ptr %295, i32 0, i32 2
  %306 = load ptr, ptr %305, align 8
  %307 = getelementptr i8, ptr %306, i32 8
  store ptr %307, ptr %305, align 8
  br label %308

308:                                              ; preds = %304, %299
  %309 = phi ptr [ %302, %299 ], [ %306, %304 ]
  %310 = load i32, ptr %309, align 4, !tbaa !27
  store i32 %310, ptr %9, align 4, !tbaa !27
  %311 = getelementptr inbounds [1 x %struct.__va_list_tag], ptr %10, i64 0, i64 0
  call void @llvm.va_end.p0(ptr %311)
  %312 = getelementptr inbounds nuw %struct._cwd_state, ptr %6, i32 0, i32 0
  %313 = load ptr, ptr %312, align 8, !tbaa !7
  %314 = load i32, ptr %5, align 4, !tbaa !27
  %315 = load i32, ptr %9, align 4, !tbaa !27
  %316 = call i32 (ptr, i32, ...) @open(ptr noundef %313, i32 noundef %314, i32 noundef %315)
  store i32 %316, ptr %7, align 4, !tbaa !27
  call void @llvm.lifetime.end.p0(i64 24, ptr %10) #16
  call void @llvm.lifetime.end.p0(i64 4, ptr %9) #16
  br label %322

317:                                              ; preds = %289
  %318 = getelementptr inbounds nuw %struct._cwd_state, ptr %6, i32 0, i32 0
  %319 = load ptr, ptr %318, align 8, !tbaa !7
  %320 = load i32, ptr %5, align 4, !tbaa !27
  %321 = call i32 (ptr, i32, ...) @open(ptr noundef %319, i32 noundef %320)
  store i32 %321, ptr %7, align 4, !tbaa !27
  br label %322

322:                                              ; preds = %317, %308
  %323 = getelementptr inbounds nuw %struct._cwd_state, ptr %6, i32 0, i32 0
  %324 = load ptr, ptr %323, align 8, !tbaa !7
  call void @_efree(ptr noundef %324)
  %325 = getelementptr inbounds nuw %struct._cwd_state, ptr %6, i32 0, i32 1
  store i64 0, ptr %325, align 8, !tbaa !13
  %326 = load i32, ptr %7, align 4, !tbaa !27
  store i32 %326, ptr %3, align 4
  store i32 1, ptr %8, align 4
  br label %327

327:                                              ; preds = %322, %285
  call void @llvm.lifetime.end.p0(i64 4, ptr %7) #16
  call void @llvm.lifetime.end.p0(i64 16, ptr %6) #16
  %328 = load i32, ptr %3, align 4
  ret i32 %328
}