; Function Attrs: nounwind uwtable
define dso_local noundef i32 @virtual_open(ptr noundef readonly captures(none) %0, i32 noundef %1, ...) local_unnamed_addr #0 {
  %3 = alloca %struct._cwd_state, align 8
  %4 = alloca [1 x %struct.__va_list_tag], align 16
  call void @llvm.lifetime.start.p0(i64 16, ptr nonnull %3) #22
  %5 = load i64, ptr getelementptr inbounds nuw (i8, ptr @cwd_globals, i64 8), align 8, !tbaa !13
  %6 = getelementptr inbounds nuw i8, ptr %3, i64 8
  store i64 %5, ptr %6, align 8, !tbaa !12
  %7 = add i64 %5, 1
  %8 = tail call noalias ptr @_emalloc(i64 noundef %7) #24
  store ptr %8, ptr %3, align 8, !tbaa !4
  %9 = load ptr, ptr @cwd_globals, align 8, !tbaa !15
  %10 = load i64, ptr getelementptr inbounds nuw (i8, ptr @cwd_globals, i64 8), align 8, !tbaa !13
  %11 = add i64 %10, 1
  tail call void @llvm.memcpy.p0.p0.i64(ptr align 1 %8, ptr align 1 %9, i64 %11, i1 false)
  %12 = call i32 @virtual_file_ex(ptr noundef nonnull %3, ptr noundef %0, ptr noundef null, i32 noundef 1)
  %.not = icmp eq i32 %12, 0
  br i1 %.not, label %13, label %36

13:                                               ; preds = %2
  %14 = and i32 %1, 64
  %.not9 = icmp eq i32 %14, 0
  br i1 %.not9, label %33, label %15

15:                                               ; preds = %13
  call void @llvm.lifetime.start.p0(i64 24, ptr nonnull %4) #22
  call void @llvm.va_start.p0(ptr nonnull %4)
  %16 = load i32, ptr %4, align 16
  %17 = icmp ult i32 %16, 41
  br i1 %17, label %18, label %24

18:                                               ; preds = %15
  %19 = getelementptr inbounds nuw i8, ptr %4, i64 16
  %20 = load ptr, ptr %19, align 16
  %21 = zext nneg i32 %16 to i64
  %22 = getelementptr i8, ptr %20, i64 %21
  %23 = add nuw nsw i32 %16, 8
  store i32 %23, ptr %4, align 16
  br label %28

24:                                               ; preds = %15
  %25 = getelementptr inbounds nuw i8, ptr %4, i64 8
  %26 = load ptr, ptr %25, align 8
  %27 = getelementptr i8, ptr %26, i64 8
  store ptr %27, ptr %25, align 8
  br label %28

28:                                               ; preds = %24, %18
  %29 = phi ptr [ %22, %18 ], [ %26, %24 ]
  %30 = load i32, ptr %29, align 4, !tbaa !23
  call void @llvm.va_end.p0(ptr nonnull %4)
  %31 = load ptr, ptr %3, align 8, !tbaa !4
  %32 = call i32 (ptr, i32, ...) @open(ptr noundef %31, i32 noundef %1, i32 noundef %30) #22
  call void @llvm.lifetime.end.p0(i64 24, ptr nonnull %4) #22
  br label %36

33:                                               ; preds = %13
  %34 = load ptr, ptr %3, align 8, !tbaa !4
  %35 = call i32 (ptr, i32, ...) @open(ptr noundef %34, i32 noundef %1) #22
  br label %36

36:                                               ; preds = %28, %33, %2
  %.0 = phi i32 [ -1, %2 ], [ %32, %28 ], [ %35, %33 ]
  %37 = load ptr, ptr %3, align 8, !tbaa !4
  call void @_efree(ptr noundef %37) #22
  call void @llvm.lifetime.end.p0(i64 16, ptr nonnull %3) #22
  ret i32 %.0
}